(lp0
(lp1
I-91
aI-75
aa(lp2
I-91
aI-76
aa(lp3
I-85
aI-73
aa(lp4
I-86
aI-73
aa(lp5
I-86
aI-74
aa(lp6
I-86
aI-75
aa(lp7
I-86
aI-76
aa(lp8
I-86
aI-77
aa(lp9
I-86
aI-78
aa(lp10
I-86
aI-79
aa(lp11
I-85
aI-80
aa(lp12
I-85
aI-81
aa(lp13
I-85
aI-82
aa(lp14
I-84
aI-83
aa(lp15
I-84
aI-84
aa(lp16
I-84
aI-85
aa(lp17
I-83
aI-85
aa(lp18
I-85
aI-83
aa(lp19
I-85
aI-84
aa(lp20
I-85
aI-85
aa(lp21
I-85
aI-86
aa(lp22
I-85
aI-87
aa(lp23
I-85
aI-88
aa(lp24
I-86
aI-87
aa(lp25
I-85
aI-89
aa(lp26
I-85
aI-90
aa(lp27
I-85
aI-91
aa(lp28
I-85
aI-94
aa(lp29
I-87
aI-93
aa(lp30
I-87
aI-94
aa(lp31
I-87
aI-95
aa(lp32
I-88
aI-96
aa(lp33
I-88
aI-97
aa(lp34
I-89
aI-97
aa(lp35
I-89
aI-98
aa(lp36
I-89
aI-99
aa(lp37
I-90
aI-99
aa(lp38
I-90
aI-98
aa(lp39
I-90
aI-97
aa(lp40
I-90
aI-96
aa(lp41
I-90
aI-95
aa(lp42
I-90
aI-93
aa(lp43
I-90
aI-92
aa(lp44
I-90
aI-91
aa(lp45
I-90
aI-89
aa(lp46
I-90
aI-90
aa(lp47
I-90
aI-88
aa(lp48
I-90
aI-87
aa(lp49
I-90
aI-86
aa(lp50
I-90
aI-85
aa(lp51
I-90
aI-84
aa(lp52
I-90
aI-83
aa(lp53
I-90
aI-82
aa(lp54
I-90
aI-81
aa(lp55
I-90
aI-80
aa(lp56
I-90
aI-79
aa(lp57
I-90
aI-78
aa(lp58
I-90
aI-77
aa(lp59
I-90
aI-76
aa(lp60
I-90
aI-75
aa(lp61
I-90
aI-74
aa(lp62
I-89
aI-74
aa(lp63
I-88
aI-74
aa(lp64
I-88
aI-75
aa(lp65
I-87
aI-75
aa(lp66
I-87
aI-74
aa(lp67
I-85
aI-74
aa(lp68
I-84
aI-74
aa(lp69
I-83
aI-74
aa(lp70
I-82
aI-74
aa(lp71
I-81
aI-74
aa(lp72
I-80
aI-74
aa(lp73
I-79
aI-74
aa(lp74
I-78
aI-74
aa(lp75
I-78
aI-75
aa(lp76
I-78
aI-76
aa(lp77
I-78
aI-77
aa(lp78
I-78
aI-78
aa(lp79
I-78
aI-79
aa(lp80
I-78
aI-80
aa(lp81
I-78
aI-81
aa(lp82
I-79
aI-82
aa(lp83
I-79
aI-83
aa(lp84
I-79
aI-84
aa(lp85
I-78
aI-83
aa(lp86
I-78
aI-82
aa(lp87
I-78
aI-84
aa(lp88
I-78
aI-85
aa(lp89
I-79
aI-85
aa(lp90
I-79
aI-86
aa(lp91
I-79
aI-87
aa(lp92
I-78
aI-87
aa(lp93
I-78
aI-86
aa(lp94
I-78
aI-88
aa(lp95
I-79
aI-88
aa(lp96
I-79
aI-89
aa(lp97
I-78
aI-89
aa(lp98
I-78
aI-90
aa(lp99
I-78
aI-91
aa(lp100
I-78
aI-92
aa(lp101
I-78
aI-93
aa(lp102
I-78
aI-94
aa(lp103
I-78
aI-95
aa(lp104
I-78
aI-96
aa(lp105
I-78
aI-97
aa(lp106
I-79
aI-97
aa(lp107
I-79
aI-98
aa(lp108
I-78
aI-98
aa(lp109
I-78
aI-99
aa(lp110
I-79
aI-99
aa(lp111
I-80
aI-99
aa(lp112
I-82
aI-99
aa(lp113
I-83
aI-99
aa(lp114
I-84
aI-99
aa(lp115
I-85
aI-99
aa(lp116
I-86
aI-99
aa(lp117
I-87
aI-99
aa(lp118
I-88
aI-99
aa(lp119
I-88
aI-98
aa(lp120
I-87
aI-98
aa(lp121
I-86
aI-98
aa(lp122
I-85
aI-98
aa(lp123
I-84
aI-98
aa(lp124
I-83
aI-98
aa(lp125
I-82
aI-98
aa(lp126
I-81
aI-98
aa(lp127
I-80
aI-98
aa(lp128
I-80
aI-97
aa(lp129
I-80
aI-96
aa(lp130
I-81
aI-96
aa(lp131
I-82
aI-96
aa(lp132
I-83
aI-96
aa(lp133
I-83
aI-97
aa(lp134
I-84
aI-97
aa(lp135
I-85
aI-97
aa(lp136
I-86
aI-97
aa(lp137
I-87
aI-97
aa(lp138
I-87
aI-96
aa(lp139
I-86
aI-96
aa(lp140
I-86
aI-95
aa(lp141
I-86
aI-94
aa(lp142
I-85
aI-96
aa(lp143
I-85
aI-95
aa(lp144
I-84
aI-94
aa(lp145
I-81
aI-97
aa(lp146
I-82
aI-97
aa(lp147
I-81
aI-99
aa(lp148
I-81
aI-95
aa(lp149
I-81
aI-94
aa(lp150
I-82
aI-93
aa(lp151
I-83
aI-93
aa(lp152
I-83
aI-94
aa(lp153
I-84
aI-95
aa(lp154
I-83
aI-95
aa(lp155
I-84
aI-96
aa(lp156
I-82
aI-95
aa(lp157
I-82
aI-94
aa(lp158
I-83
aI-92
aa(lp159
I-83
aI-91
aa(lp160
I-83
aI-90
aa(lp161
I-83
aI-89
aa(lp162
I-83
aI-88
aa(lp163
I-83
aI-87
aa(lp164
I-83
aI-86
aa(lp165
I-83
aI-84
aa(lp166
I-84
aI-86
aa(lp167
I-84
aI-87
aa(lp168
I-88
aI-94
aa(lp169
I-88
aI-93
aa(lp170
I-89
aI-93
aa(lp171
I-89
aI-94
aa(lp172
I-88
aI-95
aa(lp173
I-89
aI-95
aa(lp174
I-89
aI-96
aa(lp175
I-89
aI-92
aa(lp176
I-89
aI-91
aa(lp177
I-89
aI-90
aa(lp178
I-89
aI-89
aa(lp179
I-89
aI-88
aa(lp180
I-89
aI-87
aa(lp181
I-89
aI-86
aa(lp182
I-89
aI-85
aa(lp183
I-89
aI-84
aa(lp184
I-89
aI-83
aa(lp185
I-89
aI-82
aa(lp186
I-89
aI-81
aa(lp187
I-89
aI-80
aa(lp188
I-89
aI-79
aa(lp189
I-89
aI-78
aa(lp190
I-89
aI-77
aa(lp191
I-89
aI-76
aa(lp192
I-89
aI-75
aa(lp193
I-88
aI-76
aa(lp194
I-87
aI-76
aa(lp195
I-87
aI-77
aa(lp196
I-88
aI-77
aa(lp197
I-88
aI-78
aa(lp198
I-88
aI-79
aa(lp199
I-87
aI-79
aa(lp200
I-87
aI-78
aa(lp201
I-87
aI-80
aa(lp202
I-87
aI-81
aa(lp203
I-87
aI-82
aa(lp204
I-87
aI-83
aa(lp205
I-87
aI-84
aa(lp206
I-87
aI-85
aa(lp207
I-86
aI-85
aa(lp208
I-86
aI-86
aa(lp209
I-87
aI-91
aa(lp210
I-87
aI-92
aa(lp211
I-88
aI-92
aa(lp212
I-88
aI-91
aa(lp213
I-88
aI-90
aa(lp214
I-88
aI-89
aa(lp215
I-88
aI-88
aa(lp216
I-88
aI-87
aa(lp217
I-88
aI-86
aa(lp218
I-88
aI-85
aa(lp219
I-88
aI-84
aa(lp220
I-88
aI-83
aa(lp221
I-88
aI-82
aa(lp222
I-88
aI-81
aa(lp223
I-88
aI-80
aa(lp224
I-86
aI-80
aa(lp225
I-86
aI-81
aa(lp226
I-86
aI-82
aa(lp227
I-86
aI-83
aa(lp228
I-86
aI-84
aa(lp229
I-87
aI-90
aa(lp230
I-84
aI-82
aa(lp231
I-84
aI-81
aa(lp232
I-84
aI-80
aa(lp233
I-83
aI-80
aa(lp234
I-83
aI-81
aa(lp235
I-83
aI-82
aa(lp236
I-83
aI-83
aa(lp237
I-87
aI-86
aa(lp238
I-82
aI-83
aa(lp239
I-82
aI-82
aa(lp240
I-82
aI-81
aa(lp241
I-82
aI-80
aa(lp242
I-82
aI-84
aa(lp243
I-82
aI-85
aa(lp244
I-82
aI-86
aa(lp245
I-87
aI-87
aa(lp246
I-87
aI-89
aa(lp247
I-82
aI-90
aa(lp248
I-81
aI-90
aa(lp249
I-81
aI-91
aa(lp250
I-81
aI-92
aa(lp251
I-82
aI-92
aa(lp252
I-82
aI-89
aa(lp253
I-81
aI-89
aa(lp254
I-82
aI-91
aa(lp255
I-80
aI-93
aa(lp256
I-80
aI-94
aa(lp257
I-81
aI-93
aa(lp258
I-80
aI-95
aa(lp259
I-79
aI-95
aa(lp260
I-79
aI-96
aa(lp261
I-79
aI-94
aa(lp262
I-80
aI-92
aa(lp263
I-80
aI-91
aa(lp264
I-80
aI-90
aa(lp265
I-79
aI-92
aa(lp266
I-79
aI-93
aa(lp267
I-79
aI-91
aa(lp268
I-79
aI-90
aa(lp269
I-80
aI-89
aa(lp270
I-80
aI-88
aa(lp271
I-80
aI-87
aa(lp272
I-80
aI-86
aa(lp273
I-80
aI-85
aa(lp274
I-80
aI-84
aa(lp275
I-80
aI-83
aa(lp276
I-80
aI-82
aa(lp277
I-80
aI-81
aa(lp278
I-80
aI-80
aa(lp279
I-80
aI-79
aa(lp280
I-80
aI-78
aa(lp281
I-80
aI-77
aa(lp282
I-80
aI-76
aa(lp283
I-80
aI-75
aa(lp284
I-79
aI-75
aa(lp285
I-79
aI-76
aa(lp286
I-79
aI-77
aa(lp287
I-79
aI-78
aa(lp288
I-79
aI-79
aa(lp289
I-79
aI-80
aa(lp290
I-79
aI-81
aa(lp291
I-81
aI-83
aa(lp292
I-81
aI-84
aa(lp293
I-82
aI-87
aa(lp294
I-81
aI-87
aa(lp295
I-81
aI-88
aa(lp296
I-82
aI-88
aa(lp297
I-81
aI-86
aa(lp298
I-81
aI-85
aa(lp299
I-81
aI-81
aa(lp300
I-81
aI-80
aa(lp301
I-81
aI-79
aa(lp302
I-84
aI-79
aa(lp303
I-85
aI-79
aa(lp304
I-85
aI-78
aa(lp305
I-85
aI-77
aa(lp306
I-84
aI-77
aa(lp307
I-83
aI-77
aa(lp308
I-83
aI-78
aa(lp309
I-83
aI-79
aa(lp310
I-82
aI-79
aa(lp311
I-81
aI-78
aa(lp312
I-81
aI-82
aa(lp313
I-84
aI-76
aa(lp314
I-85
aI-76
aa(lp315
I-85
aI-75
aa(lp316
I-84
aI-75
aa(lp317
I-83
aI-75
aa(lp318
I-82
aI-75
aa(lp319
I-82
aI-76
aa(lp320
I-81
aI-76
aa(lp321
I-81
aI-75
aa(lp322
I-81
aI-77
aa(lp323
I-82
aI-77
aa(lp324
I-82
aI-78
aa(lp325
I-84
aI-78
aa(lp326
I-83
aI-76
aa(lp327
I-106
aI-97
aa(lp328
I-107
aI-97
aa(lp329
I-107
aI-98
aa(lp330
I-106
aI-98
aa(lp331
I-108
aI-98
aa(lp332
I-108
aI-99
aa(lp333
I-107
aI-99
aa(lp334
I-106
aI-99
aa(lp335
I-105
aI-99
aa(lp336
I-105
aI-98
aa(lp337
I-104
aI-98
aa(lp338
I-103
aI-98
aa(lp339
I-103
aI-97
aa(lp340
I-103
aI-96
aa(lp341
I-103
aI-95
aa(lp342
I-104
aI-95
aa(lp343
I-104
aI-94
aa(lp344
I-105
aI-94
aa(lp345
I-106
aI-94
aa(lp346
I-107
aI-94
aa(lp347
I-107
aI-95
aa(lp348
I-106
aI-95
aa(lp349
I-105
aI-95
aa(lp350
I-106
aI-96
aa(lp351
I-105
aI-96
aa(lp352
I-104
aI-96
aa(lp353
I-105
aI-97
aa(lp354
I-104
aI-97
aa(lp355
I-108
aI-97
aa(lp356
I-108
aI-96
aa(lp357
I-107
aI-96
aa(lp358
I-109
aI-96
aa(lp359
I-109
aI-97
aa(lp360
I-109
aI-98
aa(lp361
I-109
aI-99
aa(lp362
I-110
aI-99
aa(lp363
I-111
aI-99
aa(lp364
I-111
aI-98
aa(lp365
I-110
aI-98
aa(lp366
I-110
aI-97
aa(lp367
I-111
aI-97
aa(lp368
I-111
aI-96
aa(lp369
I-110
aI-96
aa(lp370
I-110
aI-95
aa(lp371
I-110
aI-94
aa(lp372
I-110
aI-93
aa(lp373
I-110
aI-92
aa(lp374
I-110
aI-91
aa(lp375
I-110
aI-90
aa(lp376
I-109
aI-90
aa(lp377
I-109
aI-91
aa(lp378
I-109
aI-92
aa(lp379
I-109
aI-93
aa(lp380
I-109
aI-94
aa(lp381
I-109
aI-95
aa(lp382
I-108
aI-95
aa(lp383
I-108
aI-94
aa(lp384
I-108
aI-93
aa(lp385
I-108
aI-92
aa(lp386
I-108
aI-91
aa(lp387
I-108
aI-90
aa(lp388
I-111
aI-90
aa(lp389
I-111
aI-91
aa(lp390
I-111
aI-92
aa(lp391
I-111
aI-93
aa(lp392
I-111
aI-94
aa(lp393
I-111
aI-95
aa(lp394
I-103
aI-94
aa(lp395
I-102
aI-94
aa(lp396
I-101
aI-94
aa(lp397
I-101
aI-95
aa(lp398
I-101
aI-96
aa(lp399
I-101
aI-97
aa(lp400
I-102
aI-97
aa(lp401
I-102
aI-96
aa(lp402
I-102
aI-95
aa(lp403
I-99
aI-91
aa(lp404
I-100
aI-91
aa(lp405
I-101
aI-91
aa(lp406
I-102
aI-91
aa(lp407
I-103
aI-92
aa(lp408
I-102
aI-92
aa(lp409
I-101
aI-93
aa(lp410
I-101
aI-92
aa(lp411
I-104
aI-92
aa(lp412
I-104
aI-93
aa(lp413
I-105
aI-93
aa(lp414
I-106
aI-93
aa(lp415
I-106
aI-92
aa(lp416
I-105
aI-91
aa(lp417
I-104
aI-91
aa(lp418
I-103
aI-91
aa(lp419
I-103
aI-90
aa(lp420
I-103
aI-89
aa(lp421
I-104
aI-89
aa(lp422
I-105
aI-89
aa(lp423
I-106
aI-89
aa(lp424
I-106
aI-90
aa(lp425
I-106
aI-91
aa(lp426
I-102
aI-90
aa(lp427
I-102
aI-89
aa(lp428
I-104
aI-88
aa(lp429
I-105
aI-88
aa(lp430
I-106
aI-88
aa(lp431
I-105
aI-90
aa(lp432
I-104
aI-90
aa(lp433
I-105
aI-92
aa(lp434
I-107
aI-90
aa(lp435
I-107
aI-92
aa(lp436
I-102
aI-93
aa(lp437
I-103
aI-93
aa(lp438
I-107
aI-93
aa(lp439
I-107
aI-91
aa(lp440
I-108
aI-89
aa(lp441
I-108
aI-88
aa(lp442
I-108
aI-87
aa(lp443
I-107
aI-87
aa(lp444
I-107
aI-88
aa(lp445
I-107
aI-89
aa(lp446
I-100
aI-97
aa(lp447
I-99
aI-97
aa(lp448
I-100
aI-98
aa(lp449
I-101
aI-98
aa(lp450
I-102
aI-98
aa(lp451
I-102
aI-99
aa(lp452
I-103
aI-99
aa(lp453
I-104
aI-99
aa(lp454
I-101
aI-99
aa(lp455
I-100
aI-99
aa(lp456
I-99
aI-99
aa(lp457
I-98
aI-99
aa(lp458
I-97
aI-99
aa(lp459
I-96
aI-99
aa(lp460
I-95
aI-99
aa(lp461
I-94
aI-99
aa(lp462
I-93
aI-99
aa(lp463
I-92
aI-99
aa(lp464
I-92
aI-98
aa(lp465
I-92
aI-97
aa(lp466
I-92
aI-96
aa(lp467
I-92
aI-95
aa(lp468
I-92
aI-94
aa(lp469
I-92
aI-93
aa(lp470
I-92
aI-92
aa(lp471
I-92
aI-91
aa(lp472
I-92
aI-90
aa(lp473
I-92
aI-89
aa(lp474
I-92
aI-88
aa(lp475
I-93
aI-88
aa(lp476
I-93
aI-89
aa(lp477
I-93
aI-90
aa(lp478
I-93
aI-91
aa(lp479
I-93
aI-92
aa(lp480
I-93
aI-93
aa(lp481
I-93
aI-94
aa(lp482
I-94
aI-95
aa(lp483
I-94
aI-96
aa(lp484
I-94
aI-97
aa(lp485
I-93
aI-97
aa(lp486
I-93
aI-98
aa(lp487
I-93
aI-96
aa(lp488
I-93
aI-95
aa(lp489
I-94
aI-98
aa(lp490
I-94
aI-94
aa(lp491
I-94
aI-93
aa(lp492
I-94
aI-92
aa(lp493
I-94
aI-91
aa(lp494
I-94
aI-90
aa(lp495
I-94
aI-89
aa(lp496
I-94
aI-88
aa(lp497
I-95
aI-88
aa(lp498
I-95
aI-89
aa(lp499
I-95
aI-92
aa(lp500
I-95
aI-93
aa(lp501
I-95
aI-94
aa(lp502
I-95
aI-95
aa(lp503
I-95
aI-96
aa(lp504
I-95
aI-97
aa(lp505
I-95
aI-98
aa(lp506
I-95
aI-91
aa(lp507
I-95
aI-90
aa(lp508
I-96
aI-90
aa(lp509
I-96
aI-89
aa(lp510
I-96
aI-88
aa(lp511
I-96
aI-91
aa(lp512
I-96
aI-92
aa(lp513
I-96
aI-93
aa(lp514
I-96
aI-94
aa(lp515
I-96
aI-95
aa(lp516
I-96
aI-96
aa(lp517
I-96
aI-97
aa(lp518
I-96
aI-98
aa(lp519
I-97
aI-98
aa(lp520
I-98
aI-98
aa(lp521
I-99
aI-98
aa(lp522
I-99
aI-96
aa(lp523
I-99
aI-95
aa(lp524
I-99
aI-94
aa(lp525
I-99
aI-93
aa(lp526
I-99
aI-92
aa(lp527
I-99
aI-90
aa(lp528
I-99
aI-89
aa(lp529
I-99
aI-88
aa(lp530
I-98
aI-88
aa(lp531
I-97
aI-88
aa(lp532
I-97
aI-89
aa(lp533
I-97
aI-90
aa(lp534
I-97
aI-91
aa(lp535
I-97
aI-92
aa(lp536
I-97
aI-93
aa(lp537
I-97
aI-94
aa(lp538
I-97
aI-95
aa(lp539
I-97
aI-96
aa(lp540
I-97
aI-97
aa(lp541
I-98
aI-97
aa(lp542
I-98
aI-96
aa(lp543
I-98
aI-95
aa(lp544
I-98
aI-92
aa(lp545
I-98
aI-91
aa(lp546
I-98
aI-90
aa(lp547
I-98
aI-89
aa(lp548
I-98
aI-93
aa(lp549
I-98
aI-94
aa(lp550
I-100
aI-96
aa(lp551
I-100
aI-95
aa(lp552
I-100
aI-89
aa(lp553
I-100
aI-88
aa(lp554
I-100
aI-87
aa(lp555
I-100
aI-86
aa(lp556
I-100
aI-85
aa(lp557
I-100
aI-90
aa(lp558
I-100
aI-92
aa(lp559
I-100
aI-93
aa(lp560
I-100
aI-94
aa(lp561
I-100
aI-84
aa(lp562
I-100
aI-83
aa(lp563
I-100
aI-82
aa(lp564
I-99
aI-82
aa(lp565
I-98
aI-82
aa(lp566
I-97
aI-82
aa(lp567
I-96
aI-82
aa(lp568
I-95
aI-82
aa(lp569
I-94
aI-82
aa(lp570
I-93
aI-82
aa(lp571
I-92
aI-82
aa(lp572
I-92
aI-83
aa(lp573
I-92
aI-84
aa(lp574
I-92
aI-85
aa(lp575
I-92
aI-86
aa(lp576
I-92
aI-87
aa(lp577
I-93
aI-87
aa(lp578
I-98
aI-87
aa(lp579
I-98
aI-86
aa(lp580
I-98
aI-85
aa(lp581
I-97
aI-85
aa(lp582
I-97
aI-86
aa(lp583
I-99
aI-87
aa(lp584
I-99
aI-86
aa(lp585
I-99
aI-85
aa(lp586
I-99
aI-84
aa(lp587
I-99
aI-83
aa(lp588
I-98
aI-83
aa(lp589
I-97
aI-83
aa(lp590
I-96
aI-83
aa(lp591
I-95
aI-83
aa(lp592
I-94
aI-83
aa(lp593
I-93
aI-83
aa(lp594
I-93
aI-84
aa(lp595
I-94
aI-84
aa(lp596
I-95
aI-84
aa(lp597
I-96
aI-84
aa(lp598
I-97
aI-84
aa(lp599
I-98
aI-84
aa(lp600
I-97
aI-87
aa(lp601
I-96
aI-87
aa(lp602
I-95
aI-87
aa(lp603
I-94
aI-87
aa(lp604
I-93
aI-86
aa(lp605
I-93
aI-85
aa(lp606
I-94
aI-85
aa(lp607
I-95
aI-85
aa(lp608
I-96
aI-85
aa(lp609
I-96
aI-86
aa(lp610
I-95
aI-86
aa(lp611
I-94
aI-86
aa(lp612
I-101
aI-86
aa(lp613
I-102
aI-86
aa(lp614
I-97
aI-75
aa(lp615
I-102
aI-76
aa(lp616
I-101
aI-76
aa(lp617
I-101
aI-77
aa(lp618
I-100
aI-77
aa(lp619
I-101
aI-75
aa(lp620
I-100
aI-76
aa(lp621
I-100
aI-75
aa(lp622
I-100
aI-74
aa(lp623
I-101
aI-74
aa(lp624
I-102
aI-74
aa(lp625
I-103
aI-74
aa(lp626
I-104
aI-74
aa(lp627
I-105
aI-74
aa(lp628
I-106
aI-74
aa(lp629
I-107
aI-74
aa(lp630
I-108
aI-74
aa(lp631
I-111
aI-74
aa(lp632
I-109
aI-74
aa(lp633
I-110
aI-74
aa(lp634
I-109
aI-75
aa(lp635
I-109
aI-76
aa(lp636
I-109
aI-77
aa(lp637
I-109
aI-78
aa(lp638
I-108
aI-78
aa(lp639
I-108
aI-79
aa(lp640
I-108
aI-80
aa(lp641
I-108
aI-81
aa(lp642
I-108
aI-82
aa(lp643
I-108
aI-83
aa(lp644
I-108
aI-84
aa(lp645
I-108
aI-85
aa(lp646
I-108
aI-86
aa(lp647
I-109
aI-88
aa(lp648
I-109
aI-87
aa(lp649
I-109
aI-86
aa(lp650
I-109
aI-85
aa(lp651
I-109
aI-84
aa(lp652
I-109
aI-83
aa(lp653
I-109
aI-82
aa(lp654
I-109
aI-81
aa(lp655
I-109
aI-80
aa(lp656
I-110
aI-79
aa(lp657
I-110
aI-78
aa(lp658
I-110
aI-80
aa(lp659
I-109
aI-79
aa(lp660
I-109
aI-89
aa(lp661
I-110
aI-89
aa(lp662
I-110
aI-88
aa(lp663
I-110
aI-87
aa(lp664
I-110
aI-86
aa(lp665
I-110
aI-85
aa(lp666
I-110
aI-84
aa(lp667
I-110
aI-83
aa(lp668
I-110
aI-82
aa(lp669
I-110
aI-81
aa(lp670
I-111
aI-77
aa(lp671
I-111
aI-76
aa(lp672
I-111
aI-75
aa(lp673
I-110
aI-75
aa(lp674
I-110
aI-77
aa(lp675
I-110
aI-76
aa(lp676
I-111
aI-78
aa(lp677
I-111
aI-79
aa(lp678
I-111
aI-80
aa(lp679
I-111
aI-81
aa(lp680
I-111
aI-82
aa(lp681
I-111
aI-83
aa(lp682
I-102
aI-88
aa(lp683
I-101
aI-87
aa(lp684
I-101
aI-82
aa(lp685
I-102
aI-82
aa(lp686
I-103
aI-82
aa(lp687
I-104
aI-82
aa(lp688
I-104
aI-81
aa(lp689
I-105
aI-81
aa(lp690
I-106
aI-81
aa(lp691
I-107
aI-81
aa(lp692
I-107
aI-82
aa(lp693
I-111
aI-87
aa(lp694
I-111
aI-88
aa(lp695
I-111
aI-89
aa(lp696
I-111
aI-86
aa(lp697
I-111
aI-85
aa(lp698
I-111
aI-84
aa(lp699
I-107
aI-84
aa(lp700
I-106
aI-84
aa(lp701
I-105
aI-84
aa(lp702
I-104
aI-84
aa(lp703
I-103
aI-84
aa(lp704
I-102
aI-84
aa(lp705
I-101
aI-84
aa(lp706
I-103
aI-86
aa(lp707
I-104
aI-86
aa(lp708
I-105
aI-86
aa(lp709
I-106
aI-86
aa(lp710
I-107
aI-86
aa(lp711
I-107
aI-85
aa(lp712
I-101
aI-85
aa(lp713
I-102
aI-85
aa(lp714
I-104
aI-87
aa(lp715
I-105
aI-87
aa(lp716
I-105
aI-85
aa(lp717
I-104
aI-85
aa(lp718
I-103
aI-85
aa(lp719
I-106
aI-85
aa(lp720
I-102
aI-87
aa(lp721
I-103
aI-88
aa(lp722
I-101
aI-88
aa(lp723
I-103
aI-87
aa(lp724
I-106
aI-87
aa(lp725
I-101
aI-89
aa(lp726
I-101
aI-90
aa(lp727
I-105
aI-83
aa(lp728
I-106
aI-83
aa(lp729
I-106
aI-82
aa(lp730
I-105
aI-82
aa(lp731
I-104
aI-80
aa(lp732
I-102
aI-80
aa(lp733
I-101
aI-80
aa(lp734
I-102
aI-81
aa(lp735
I-103
aI-83
aa(lp736
I-104
aI-83
aa(lp737
I-107
aI-83
aa(lp738
I-102
aI-83
aa(lp739
I-101
aI-83
aa(lp740
I-101
aI-81
aa(lp741
I-102
aI-79
aa(lp742
I-102
aI-78
aa(lp743
I-102
aI-77
aa(lp744
I-102
aI-75
aa(lp745
I-108
aI-76
aa(lp746
I-107
aI-76
aa(lp747
I-107
aI-77
aa(lp748
I-106
aI-77
aa(lp749
I-106
aI-76
aa(lp750
I-106
aI-75
aa(lp751
I-107
aI-75
aa(lp752
I-108
aI-75
aa(lp753
I-103
aI-77
aa(lp754
I-104
aI-77
aa(lp755
I-105
aI-77
aa(lp756
I-105
aI-76
aa(lp757
I-105
aI-75
aa(lp758
I-104
aI-75
aa(lp759
I-103
aI-75
aa(lp760
I-103
aI-76
aa(lp761
I-104
aI-76
aa(lp762
I-108
aI-77
aa(lp763
I-106
aI-78
aa(lp764
I-105
aI-78
aa(lp765
I-104
aI-78
aa(lp766
I-104
aI-79
aa(lp767
I-103
aI-79
aa(lp768
I-105
aI-79
aa(lp769
I-106
aI-79
aa(lp770
I-107
aI-78
aa(lp771
I-107
aI-80
aa(lp772
I-105
aI-80
aa(lp773
I-103
aI-80
aa(lp774
I-106
aI-80
aa(lp775
I-99
aI-77
aa(lp776
I-98
aI-77
aa(lp777
I-98
aI-78
aa(lp778
I-97
aI-78
aa(lp779
I-96
aI-78
aa(lp780
I-95
aI-78
aa(lp781
I-94
aI-78
aa(lp782
I-94
aI-77
aa(lp783
I-96
aI-77
aa(lp784
I-98
aI-79
aa(lp785
I-98
aI-80
aa(lp786
I-99
aI-80
aa(lp787
I-100
aI-80
aa(lp788
I-101
aI-79
aa(lp789
I-100
aI-79
aa(lp790
I-97
aI-79
aa(lp791
I-99
aI-78
aa(lp792
I-100
aI-78
aa(lp793
I-101
aI-78
aa(lp794
I-96
aI-79
aa(lp795
I-95
aI-79
aa(lp796
I-94
aI-79
aa(lp797
I-93
aI-79
aa(lp798
I-99
aI-79
aa(lp799
I-100
aI-81
aa(lp800
I-103
aI-81
aa(lp801
I-107
aI-79
aa(lp802
I-103
aI-78
aa(lp803
I-99
aI-81
aa(lp804
I-98
aI-81
aa(lp805
I-97
aI-81
aa(lp806
I-96
aI-81
aa(lp807
I-95
aI-81
aa(lp808
I-94
aI-81
aa(lp809
I-93
aI-81
aa(lp810
I-92
aI-81
aa(lp811
I-92
aI-80
aa(lp812
I-94
aI-80
aa(lp813
I-93
aI-80
aa(lp814
I-95
aI-80
aa(lp815
I-96
aI-80
aa(lp816
I-97
aI-80
aa(lp817
I-97
aI-77
aa(lp818
I-97
aI-76
aa(lp819
I-98
aI-75
aa(lp820
I-99
aI-74
aa(lp821
I-99
aI-75
aa(lp822
I-99
aI-76
aa(lp823
I-98
aI-76
aa(lp824
I-98
aI-74
aa(lp825
I-97
aI-74
aa(lp826
I-96
aI-74
aa(lp827
I-95
aI-74
aa(lp828
I-94
aI-74
aa(lp829
I-93
aI-74
aa(lp830
I-92
aI-74
aa(lp831
I-92
aI-75
aa(lp832
I-92
aI-76
aa(lp833
I-93
aI-77
aa(lp834
I-93
aI-78
aa(lp835
I-95
aI-77
aa(lp836
I-96
aI-76
aa(lp837
I-96
aI-75
aa(lp838
I-95
aI-75
aa(lp839
I-94
aI-75
aa(lp840
I-93
aI-75
aa(lp841
I-93
aI-76
aa(lp842
I-94
aI-76
aa(lp843
I-95
aI-76
aa(lp844
I-92
aI-77
aa(lp845
I-92
aI-78
aa(lp846
I-92
aI-79
aa(lp847
I-141
aI-44
aa(lp848
I-142
aI-44
aa(lp849
I-84
aI-91
aa(lp850
I-84
aI-92
aa(lp851
I-85
aI-92
aa(lp852
I-85
aI-93
aa(lp853
I-90
aI-94
aa(lp854
I-86
aI-90
aa(lp855
I-86
aI-89
aa(lp856
I-84
aI-90
aa(lp857
I-84
aI-89
aa(lp858
I-86
aI-88
aa(lp859
I-87
aI-88
aa(lp860
I-84
aI-88
aa(lp861
I-86
aI-91
aa(lp862
I-86
aI-92
aa(lp863
I-86
aI-93
aa(lp864
I-57
aI51
aa(lp865
I-57
aI50
aa(lp866
I-142
aI28
aa(lp867
I-141
aI28
aa(lp868
I-105
aI28
aa(lp869
I-106
aI28
aa(lp870
I-147
aI9
aa(lp871
I-147
aI10
aa(lp872
I-49
aI-67
aa(lp873
I-49
aI-66
aa(lp874
I-47
aI-64
aa(lp875
I-46
aI-64
aa(lp876
I-71
aI-44
aa(lp877
I-72
aI-44
aa(lp878
I-14
aI116
aa(lp879
I6
aI96
aa(lp880
I23
aI79
aa(lp881
I22
aI79
aa(lp882
I21
aI79
aa(lp883
I20
aI79
aa.(lp0
(lp1
I-147
aI-100
aa(lp2
I-147
aI-99
aa(lp3
I-147
aI-98
aa(lp4
I-147
aI-97
aa(lp5
I-147
aI-96
aa(lp6
I-147
aI-95
aa(lp7
I-147
aI-94
aa(lp8
I-147
aI-93
aa(lp9
I-147
aI-92
aa(lp10
I-147
aI-91
aa(lp11
I-147
aI-90
aa(lp12
I-147
aI-89
aa(lp13
I-147
aI-88
aa(lp14
I-147
aI-87
aa(lp15
I-147
aI-86
aa(lp16
I-147
aI-85
aa(lp17
I-147
aI-84
aa(lp18
I-147
aI-83
aa(lp19
I-147
aI-82
aa(lp20
I-147
aI-81
aa(lp21
I-147
aI-80
aa(lp22
I-147
aI-79
aa(lp23
I-147
aI-78
aa(lp24
I-147
aI-77
aa(lp25
I-147
aI-76
aa(lp26
I-147
aI-75
aa(lp27
I-147
aI-74
aa(lp28
I-147
aI-73
aa(lp29
I-147
aI-72
aa(lp30
I-147
aI-71
aa(lp31
I-147
aI-70
aa(lp32
I-147
aI-69
aa(lp33
I-147
aI-68
aa(lp34
I-147
aI-67
aa(lp35
I-147
aI-66
aa(lp36
I-147
aI-65
aa(lp37
I-147
aI-64
aa(lp38
I-147
aI-63
aa(lp39
I-147
aI-62
aa(lp40
I-147
aI-57
aa(lp41
I-147
aI-55
aa(lp42
I-147
aI-56
aa(lp43
I-147
aI-54
aa(lp44
I-147
aI-52
aa(lp45
I-147
aI-53
aa(lp46
I-147
aI-51
aa(lp47
I-147
aI-50
aa(lp48
I-147
aI-49
aa(lp49
I-147
aI-48
aa(lp50
I-147
aI-47
aa(lp51
I-147
aI-46
aa(lp52
I-147
aI-45
aa(lp53
I-147
aI-44
aa(lp54
I-147
aI-43
aa(lp55
I-147
aI-42
aa(lp56
I-147
aI-41
aa(lp57
I-147
aI-40
aa(lp58
I-147
aI-39
aa(lp59
I-147
aI-38
aa(lp60
I-147
aI-37
aa(lp61
I-147
aI-36
aa(lp62
I-147
aI-35
aa(lp63
I-147
aI-34
aa(lp64
I-147
aI-33
aa(lp65
I-147
aI-32
aa(lp66
I-147
aI-31
aa(lp67
I-147
aI-30
aa(lp68
I-147
aI-29
aa(lp69
I-147
aI-28
aa(lp70
I-147
aI-27
aa(lp71
I-147
aI-26
aa(lp72
I-147
aI-25
aa(lp73
I-147
aI-24
aa(lp74
I-147
aI-23
aa(lp75
I-147
aI-14
aa(lp76
I-147
aI-15
aa(lp77
I-147
aI-21
aa(lp78
I-147
aI-22
aa(lp79
I-147
aI-20
aa(lp80
I-147
aI-19
aa(lp81
I-147
aI-18
aa(lp82
I-147
aI-17
aa(lp83
I-147
aI-16
aa(lp84
I-147
aI75
aa(lp85
I-147
aI74
aa(lp86
I-147
aI73
aa(lp87
I-147
aI72
aa(lp88
I-147
aI71
aa(lp89
I-147
aI70
aa(lp90
I-147
aI69
aa(lp91
I-147
aI68
aa(lp92
I-147
aI67
aa(lp93
I-147
aI66
aa(lp94
I-147
aI65
aa(lp95
I-147
aI64
aa(lp96
I-147
aI63
aa(lp97
I-147
aI62
aa(lp98
I-147
aI61
aa(lp99
I-147
aI60
aa(lp100
I-147
aI59
aa(lp101
I-147
aI58
aa(lp102
I-147
aI57
aa(lp103
I-147
aI56
aa(lp104
I-147
aI55
aa(lp105
I-147
aI54
aa(lp106
I-147
aI14
aa(lp107
I-147
aI15
aa(lp108
I-147
aI16
aa(lp109
I-147
aI17
aa(lp110
I-147
aI18
aa(lp111
I-147
aI19
aa(lp112
I-147
aI20
aa(lp113
I-147
aI21
aa(lp114
I-147
aI22
aa(lp115
I-147
aI23
aa(lp116
I-147
aI24
aa(lp117
I-147
aI25
aa(lp118
I-147
aI26
aa(lp119
I-147
aI27
aa(lp120
I-147
aI28
aa(lp121
I-147
aI29
aa(lp122
I-147
aI30
aa(lp123
I-147
aI31
aa(lp124
I-147
aI32
aa(lp125
I-147
aI33
aa(lp126
I-147
aI34
aa(lp127
I-147
aI35
aa(lp128
I-147
aI37
aa(lp129
I-147
aI36
aa(lp130
I-147
aI38
aa(lp131
I-147
aI39
aa(lp132
I-147
aI40
aa(lp133
I-147
aI41
aa(lp134
I-147
aI42
aa(lp135
I-147
aI43
aa(lp136
I-147
aI44
aa(lp137
I-147
aI45
aa(lp138
I-147
aI46
aa(lp139
I-147
aI47
aa(lp140
I-147
aI48
aa(lp141
I-147
aI49
aa(lp142
I-147
aI50
aa(lp143
I-147
aI51
aa(lp144
I-147
aI52
aa(lp145
I-147
aI53
aa(lp146
I-147
aI-7
aa(lp147
I-147
aI-8
aa(lp148
I-147
aI-9
aa(lp149
I-147
aI-10
aa(lp150
I-147
aI-11
aa(lp151
I-147
aI-12
aa(lp152
I-147
aI-13
aa(lp153
I-147
aI-6
aa(lp154
I-147
aI-5
aa(lp155
I-147
aI-4
aa(lp156
I-147
aI-3
aa(lp157
I-147
aI-2
aa(lp158
I-147
aI-1
aa(lp159
I-147
aI0
aa(lp160
I-147
aI1
aa(lp161
I-147
aI2
aa(lp162
I-147
aI3
aa(lp163
I-147
aI4
aa(lp164
I-147
aI5
aa(lp165
I-147
aI6
aa(lp166
I-147
aI8
aa(lp167
I-147
aI7
aa(lp168
I-147
aI11
aa(lp169
I-147
aI12
aa(lp170
I-147
aI13
aa(lp171
I-147
aI-58
aa(lp172
I-147
aI-59
aa(lp173
I-147
aI-60
aa(lp174
I-147
aI-61
aa(lp175
I-147
aI79
aa(lp176
I-147
aI78
aa(lp177
I-147
aI76
aa(lp178
I-147
aI77
aa(lp179
I-42
aI-100
aa(lp180
I-43
aI-100
aa(lp181
I-104
aI-100
aa(lp182
I-103
aI-100
aa(lp183
I-102
aI-100
aa(lp184
I-101
aI-100
aa(lp185
I-100
aI-100
aa(lp186
I-99
aI-100
aa(lp187
I-98
aI-100
aa(lp188
I-97
aI-100
aa(lp189
I-96
aI-100
aa(lp190
I-95
aI-100
aa(lp191
I-94
aI-100
aa(lp192
I-93
aI-100
aa(lp193
I-92
aI-100
aa(lp194
I-91
aI-100
aa(lp195
I-90
aI-100
aa(lp196
I-89
aI-100
aa(lp197
I-88
aI-100
aa(lp198
I-87
aI-100
aa(lp199
I-86
aI-100
aa(lp200
I-85
aI-100
aa(lp201
I-84
aI-100
aa(lp202
I-83
aI-100
aa(lp203
I-82
aI-100
aa(lp204
I-79
aI-100
aa(lp205
I-77
aI-100
aa(lp206
I-76
aI-100
aa(lp207
I-75
aI-100
aa(lp208
I-74
aI-100
aa(lp209
I-73
aI-100
aa(lp210
I-72
aI-100
aa(lp211
I-71
aI-100
aa(lp212
I-70
aI-100
aa(lp213
I-69
aI-100
aa(lp214
I-68
aI-100
aa(lp215
I-67
aI-100
aa(lp216
I-61
aI-100
aa(lp217
I-62
aI-100
aa(lp218
I-63
aI-100
aa(lp219
I-64
aI-100
aa(lp220
I-65
aI-100
aa(lp221
I-66
aI-100
aa(lp222
I-60
aI-100
aa(lp223
I-59
aI-100
aa(lp224
I-58
aI-100
aa(lp225
I-57
aI-100
aa(lp226
I-56
aI-100
aa(lp227
I-55
aI-100
aa(lp228
I-54
aI-100
aa(lp229
I-53
aI-100
aa(lp230
I-52
aI-100
aa(lp231
I-51
aI-100
aa(lp232
I-50
aI-100
aa(lp233
I-49
aI-100
aa(lp234
I-48
aI-100
aa(lp235
I-47
aI-100
aa(lp236
I-46
aI-100
aa(lp237
I-45
aI-100
aa(lp238
I-44
aI-100
aa(lp239
I-146
aI-100
aa(lp240
I-145
aI-100
aa(lp241
I-144
aI-100
aa(lp242
I-143
aI-100
aa(lp243
I-142
aI-100
aa(lp244
I-141
aI-100
aa(lp245
I-140
aI-100
aa(lp246
I-139
aI-100
aa(lp247
I-138
aI-100
aa(lp248
I-137
aI-100
aa(lp249
I-136
aI-100
aa(lp250
I-135
aI-100
aa(lp251
I-134
aI-100
aa(lp252
I-133
aI-100
aa(lp253
I-132
aI-100
aa(lp254
I-131
aI-100
aa(lp255
I-127
aI-100
aa(lp256
I-128
aI-100
aa(lp257
I-129
aI-100
aa(lp258
I-130
aI-100
aa(lp259
I-126
aI-100
aa(lp260
I-125
aI-100
aa(lp261
I-124
aI-100
aa(lp262
I-123
aI-100
aa(lp263
I-119
aI-100
aa(lp264
I-118
aI-100
aa(lp265
I-117
aI-100
aa(lp266
I-116
aI-100
aa(lp267
I-115
aI-100
aa(lp268
I-114
aI-100
aa(lp269
I-113
aI-100
aa(lp270
I-107
aI-100
aa(lp271
I-106
aI-100
aa(lp272
I-105
aI-100
aa(lp273
I-122
aI-100
aa(lp274
I-121
aI-100
aa(lp275
I-120
aI-100
aa(lp276
I-112
aI-100
aa(lp277
I-111
aI-100
aa(lp278
I-110
aI-100
aa(lp279
I-109
aI-100
aa(lp280
I-108
aI-100
aa(lp281
I-38
aI-100
aa(lp282
I-39
aI-100
aa(lp283
I-40
aI-100
aa(lp284
I-41
aI-100
aa(lp285
I-112
aI-73
aa(lp286
I-112
aI-74
aa(lp287
I-112
aI-75
aa(lp288
I-112
aI-76
aa(lp289
I-112
aI-77
aa(lp290
I-112
aI-79
aa(lp291
I-112
aI-80
aa(lp292
I-112
aI-81
aa(lp293
I-112
aI-82
aa(lp294
I-112
aI-83
aa(lp295
I-112
aI-84
aa(lp296
I-112
aI-85
aa(lp297
I-112
aI-86
aa(lp298
I-112
aI-87
aa(lp299
I-112
aI-88
aa(lp300
I-112
aI-89
aa(lp301
I-112
aI-90
aa(lp302
I-112
aI-91
aa(lp303
I-112
aI-92
aa(lp304
I-112
aI-93
aa(lp305
I-112
aI-94
aa(lp306
I-112
aI-95
aa(lp307
I-112
aI-96
aa(lp308
I-112
aI-97
aa(lp309
I-112
aI-98
aa(lp310
I-112
aI-99
aa(lp311
I-91
aI-99
aa(lp312
I-91
aI-98
aa(lp313
I-91
aI-97
aa(lp314
I-91
aI-96
aa(lp315
I-91
aI-95
aa(lp316
I-91
aI-94
aa(lp317
I-91
aI-92
aa(lp318
I-91
aI-87
aa(lp319
I-91
aI-84
aa(lp320
I-91
aI-83
aa(lp321
I-91
aI-85
aa(lp322
I-91
aI-86
aa(lp323
I-91
aI-82
aa(lp324
I-91
aI-81
aa(lp325
I-91
aI-80
aa(lp326
I-91
aI-73
aa(lp327
I-91
aI-77
aa(lp328
I-91
aI-88
aa(lp329
I-111
aI-73
aa(lp330
I-107
aI-73
aa(lp331
I-106
aI-73
aa(lp332
I-105
aI-73
aa(lp333
I-104
aI-73
aa(lp334
I-103
aI-73
aa(lp335
I-102
aI-73
aa(lp336
I-94
aI-73
aa(lp337
I-93
aI-73
aa(lp338
I-92
aI-73
aa(lp339
I-95
aI-73
aa(lp340
I-96
aI-73
aa(lp341
I-97
aI-73
aa(lp342
I-99
aI-73
aa(lp343
I-100
aI-73
aa(lp344
I-101
aI-73
aa(lp345
I-77
aI-99
aa(lp346
I-77
aI-98
aa(lp347
I-77
aI-97
aa(lp348
I-77
aI-96
aa(lp349
I-77
aI-95
aa(lp350
I-77
aI-94
aa(lp351
I-77
aI-93
aa(lp352
I-77
aI-92
aa(lp353
I-77
aI-91
aa(lp354
I-77
aI-90
aa(lp355
I-77
aI-89
aa(lp356
I-77
aI-88
aa(lp357
I-77
aI-87
aa(lp358
I-77
aI-86
aa(lp359
I-77
aI-85
aa(lp360
I-77
aI-84
aa(lp361
I-77
aI-83
aa(lp362
I-77
aI-82
aa(lp363
I-77
aI-81
aa(lp364
I-77
aI-80
aa(lp365
I-77
aI-79
aa(lp366
I-77
aI-78
aa(lp367
I-77
aI-77
aa(lp368
I-77
aI-76
aa(lp369
I-77
aI-75
aa(lp370
I-77
aI-74
aa(lp371
I-77
aI-73
aa(lp372
I-78
aI-73
aa(lp373
I-79
aI-73
aa(lp374
I-80
aI-73
aa(lp375
I-81
aI-73
aa(lp376
I-82
aI-73
aa(lp377
I-87
aI-73
aa(lp378
I-88
aI-73
aa(lp379
I-89
aI-73
aa(lp380
I-90
aI-73
aa(lp381
I-91
aI-74
aa(lp382
I-80
aI-100
aa(lp383
I-78
aI-100
aa(lp384
I-81
aI-100
aa(lp385
I-83
aI-73
aa(lp386
I-84
aI-73
aa(lp387
I-113
aI-93
aa(lp388
I-114
aI-93
aa(lp389
I-91
aI-91
aa(lp390
I-91
aI-90
aa(lp391
I-91
aI-89
aa(lp392
I-135
aI-93
aa(lp393
I-134
aI-93
aa(lp394
I-133
aI-93
aa(lp395
I-132
aI-93
aa(lp396
I-131
aI-93
aa(lp397
I-130
aI-93
aa(lp398
I-129
aI-93
aa(lp399
I-128
aI-93
aa(lp400
I-127
aI-93
aa(lp401
I-126
aI-93
aa(lp402
I-125
aI-93
aa(lp403
I-124
aI-93
aa(lp404
I-123
aI-93
aa(lp405
I-122
aI-93
aa(lp406
I-121
aI-93
aa(lp407
I-120
aI-93
aa(lp408
I-119
aI-93
aa(lp409
I-118
aI-93
aa(lp410
I-117
aI-93
aa(lp411
I-116
aI-93
aa(lp412
I-115
aI-93
aa(lp413
I-136
aI-93
aa(lp414
I-137
aI-93
aa(lp415
I-137
aI-92
aa(lp416
I-137
aI-45
aa(lp417
I-137
aI-46
aa(lp418
I-137
aI-91
aa(lp419
I-137
aI-90
aa(lp420
I-137
aI-89
aa(lp421
I-137
aI-88
aa(lp422
I-137
aI-87
aa(lp423
I-137
aI-86
aa(lp424
I-137
aI-85
aa(lp425
I-137
aI-84
aa(lp426
I-137
aI-83
aa(lp427
I-137
aI-82
aa(lp428
I-137
aI-81
aa(lp429
I-137
aI-80
aa(lp430
I-137
aI-79
aa(lp431
I-137
aI-78
aa(lp432
I-137
aI-77
aa(lp433
I-137
aI-76
aa(lp434
I-137
aI-75
aa(lp435
I-137
aI-74
aa(lp436
I-137
aI-73
aa(lp437
I-137
aI-72
aa(lp438
I-137
aI-71
aa(lp439
I-137
aI-70
aa(lp440
I-137
aI-69
aa(lp441
I-137
aI-68
aa(lp442
I-137
aI-67
aa(lp443
I-137
aI-66
aa(lp444
I-137
aI-65
aa(lp445
I-137
aI-64
aa(lp446
I-137
aI-63
aa(lp447
I-137
aI-62
aa(lp448
I-137
aI-61
aa(lp449
I-137
aI-60
aa(lp450
I-137
aI-59
aa(lp451
I-137
aI-58
aa(lp452
I-137
aI-57
aa(lp453
I-137
aI-56
aa(lp454
I-137
aI-55
aa(lp455
I-137
aI-54
aa(lp456
I-137
aI-53
aa(lp457
I-137
aI-52
aa(lp458
I-137
aI-51
aa(lp459
I-137
aI-50
aa(lp460
I-137
aI-49
aa(lp461
I-137
aI-48
aa(lp462
I-137
aI-47
aa(lp463
I-137
aI-44
aa(lp464
I-109
aI-73
aa(lp465
I-108
aI-73
aa(lp466
I-110
aI-73
aa(lp467
I-112
aI-78
aa(lp468
I-98
aI-73
aa(lp469
I-91
aI-79
aa(lp470
I-91
aI-78
aa(lp471
I-84
aI-93
aa(lp472
I-136
aI-44
aa(lp473
I-135
aI-44
aa(lp474
I-134
aI-44
aa(lp475
I-133
aI-44
aa(lp476
I-129
aI-44
aa(lp477
I-130
aI-44
aa(lp478
I-131
aI-44
aa(lp479
I-128
aI-44
aa(lp480
I-127
aI-44
aa(lp481
I-126
aI-44
aa(lp482
I-125
aI-44
aa(lp483
I-124
aI-44
aa(lp484
I-123
aI-44
aa(lp485
I-122
aI-44
aa(lp486
I-121
aI-44
aa(lp487
I-120
aI-44
aa(lp488
I-119
aI-44
aa(lp489
I-118
aI-44
aa(lp490
I-117
aI-44
aa(lp491
I-116
aI-44
aa(lp492
I-115
aI-44
aa(lp493
I-114
aI-44
aa(lp494
I-113
aI-44
aa(lp495
I-112
aI-44
aa(lp496
I-111
aI-44
aa(lp497
I-110
aI-44
aa(lp498
I-107
aI-44
aa(lp499
I-106
aI-44
aa(lp500
I-105
aI-44
aa(lp501
I-104
aI-44
aa(lp502
I-103
aI-44
aa(lp503
I-102
aI-44
aa(lp504
I-101
aI-44
aa(lp505
I-100
aI-44
aa(lp506
I-99
aI-44
aa(lp507
I-98
aI-44
aa(lp508
I-97
aI-44
aa(lp509
I-96
aI-44
aa(lp510
I-95
aI-44
aa(lp511
I-94
aI-44
aa(lp512
I-93
aI-44
aa(lp513
I-92
aI-44
aa(lp514
I-91
aI-44
aa(lp515
I-88
aI-44
aa(lp516
I-89
aI-44
aa(lp517
I-90
aI-44
aa(lp518
I-87
aI-44
aa(lp519
I-86
aI-44
aa(lp520
I-85
aI-44
aa(lp521
I-84
aI-44
aa(lp522
I-83
aI-44
aa(lp523
I-82
aI-44
aa(lp524
I-81
aI-44
aa(lp525
I-80
aI-44
aa(lp526
I-79
aI-44
aa(lp527
I-78
aI-44
aa(lp528
I-77
aI-44
aa(lp529
I-109
aI-44
aa(lp530
I-108
aI-44
aa(lp531
I-132
aI-44
aa(lp532
I-138
aI-44
aa(lp533
I-139
aI-44
aa(lp534
I-140
aI-44
aa(lp535
I-143
aI-44
aa(lp536
I-144
aI-44
aa(lp537
I-145
aI-44
aa(lp538
I-146
aI-44
aa(lp539
I-91
aI-93
aa(lp540
I-43
aI-58
aa(lp541
I-38
aI-99
aa(lp542
I-38
aI-98
aa(lp543
I-38
aI-97
aa(lp544
I-43
aI-59
aa(lp545
I-43
aI-64
aa(lp546
I-43
aI-65
aa(lp547
I-43
aI-66
aa(lp548
I-43
aI-63
aa(lp549
I-43
aI-62
aa(lp550
I-43
aI-61
aa(lp551
I-43
aI-60
aa(lp552
I-42
aI-67
aa(lp553
I-42
aI-68
aa(lp554
I-42
aI-69
aa(lp555
I-42
aI-70
aa(lp556
I-42
aI-71
aa(lp557
I-42
aI-72
aa(lp558
I-42
aI-73
aa(lp559
I-42
aI-74
aa(lp560
I-41
aI-75
aa(lp561
I-41
aI-76
aa(lp562
I-41
aI-77
aa(lp563
I-41
aI-78
aa(lp564
I-41
aI-79
aa(lp565
I-41
aI-80
aa(lp566
I-41
aI-81
aa(lp567
I-41
aI-82
aa(lp568
I-40
aI-89
aa(lp569
I-40
aI-88
aa(lp570
I-40
aI-87
aa(lp571
I-40
aI-86
aa(lp572
I-40
aI-85
aa(lp573
I-40
aI-84
aa(lp574
I-40
aI-83
aa(lp575
I-39
aI-90
aa(lp576
I-39
aI-91
aa(lp577
I-39
aI-92
aa(lp578
I-39
aI-93
aa(lp579
I-39
aI-94
aa(lp580
I-39
aI-95
aa(lp581
I-39
aI-96
aa(lp582
I-39
aI-97
aa(lp583
I26
aI-58
aa(lp584
I25
aI-58
aa(lp585
I24
aI-58
aa(lp586
I23
aI-58
aa(lp587
I22
aI-58
aa(lp588
I21
aI-58
aa(lp589
I20
aI-58
aa(lp590
I19
aI-58
aa(lp591
I18
aI-58
aa(lp592
I15
aI-58
aa(lp593
I14
aI-58
aa(lp594
I13
aI-58
aa(lp595
I12
aI-58
aa(lp596
I11
aI-58
aa(lp597
I10
aI-58
aa(lp598
I9
aI-58
aa(lp599
I8
aI-58
aa(lp600
I7
aI-58
aa(lp601
I-11
aI-58
aa(lp602
I-12
aI-58
aa(lp603
I-13
aI-58
aa(lp604
I-14
aI-58
aa(lp605
I-15
aI-58
aa(lp606
I-16
aI-58
aa(lp607
I-17
aI-58
aa(lp608
I-18
aI-58
aa(lp609
I-19
aI-58
aa(lp610
I-20
aI-58
aa(lp611
I-21
aI-58
aa(lp612
I17
aI-58
aa(lp613
I16
aI-58
aa(lp614
I1
aI-58
aa(lp615
I2
aI-58
aa(lp616
I3
aI-58
aa(lp617
I4
aI-58
aa(lp618
I5
aI-58
aa(lp619
I6
aI-58
aa(lp620
I0
aI-58
aa(lp621
I-1
aI-58
aa(lp622
I-2
aI-58
aa(lp623
I-3
aI-58
aa(lp624
I-4
aI-58
aa(lp625
I-5
aI-58
aa(lp626
I-6
aI-58
aa(lp627
I-7
aI-58
aa(lp628
I-8
aI-58
aa(lp629
I-9
aI-58
aa(lp630
I-10
aI-58
aa(lp631
I-24
aI-58
aa(lp632
I-23
aI-58
aa(lp633
I-22
aI-58
aa(lp634
I-25
aI-58
aa(lp635
I-26
aI-58
aa(lp636
I-27
aI-58
aa(lp637
I-28
aI-58
aa(lp638
I-29
aI-58
aa(lp639
I-30
aI-58
aa(lp640
I-31
aI-58
aa(lp641
I-32
aI-58
aa(lp642
I-33
aI-58
aa(lp643
I-34
aI-58
aa(lp644
I-35
aI-58
aa(lp645
I-36
aI-58
aa(lp646
I-37
aI-58
aa(lp647
I-38
aI-58
aa(lp648
I-42
aI-58
aa(lp649
I-41
aI-58
aa(lp650
I-40
aI-58
aa(lp651
I-39
aI-58
aa(lp652
I-63
aI79
aa(lp653
I-62
aI79
aa(lp654
I-61
aI79
aa(lp655
I-60
aI79
aa(lp656
I-64
aI79
aa(lp657
I-65
aI79
aa(lp658
I-66
aI79
aa(lp659
I-67
aI79
aa(lp660
I-68
aI79
aa(lp661
I-69
aI79
aa(lp662
I-70
aI79
aa(lp663
I-71
aI79
aa(lp664
I-72
aI79
aa(lp665
I-73
aI79
aa(lp666
I-74
aI79
aa(lp667
I-75
aI79
aa(lp668
I-76
aI79
aa(lp669
I-77
aI79
aa(lp670
I-80
aI79
aa(lp671
I-79
aI79
aa(lp672
I-78
aI79
aa(lp673
I-81
aI79
aa(lp674
I-82
aI79
aa(lp675
I-83
aI79
aa(lp676
I-84
aI79
aa(lp677
I-85
aI79
aa(lp678
I-86
aI79
aa(lp679
I-87
aI79
aa(lp680
I-88
aI79
aa(lp681
I-89
aI79
aa(lp682
I-90
aI79
aa(lp683
I-91
aI79
aa(lp684
I-92
aI79
aa(lp685
I-146
aI79
aa(lp686
I-145
aI79
aa(lp687
I-144
aI79
aa(lp688
I-143
aI79
aa(lp689
I-142
aI79
aa(lp690
I-141
aI79
aa(lp691
I-140
aI79
aa(lp692
I-139
aI79
aa(lp693
I-138
aI79
aa(lp694
I-133
aI79
aa(lp695
I-134
aI79
aa(lp696
I-135
aI79
aa(lp697
I-136
aI79
aa(lp698
I-137
aI79
aa(lp699
I-125
aI79
aa(lp700
I-124
aI79
aa(lp701
I-123
aI79
aa(lp702
I-122
aI79
aa(lp703
I-121
aI79
aa(lp704
I-119
aI79
aa(lp705
I-118
aI79
aa(lp706
I-116
aI79
aa(lp707
I-114
aI79
aa(lp708
I-113
aI79
aa(lp709
I-112
aI79
aa(lp710
I-111
aI79
aa(lp711
I-110
aI79
aa(lp712
I-109
aI79
aa(lp713
I-108
aI79
aa(lp714
I-107
aI79
aa(lp715
I-106
aI79
aa(lp716
I-105
aI79
aa(lp717
I-104
aI79
aa(lp718
I-103
aI79
aa(lp719
I-102
aI79
aa(lp720
I-101
aI79
aa(lp721
I-100
aI79
aa(lp722
I-99
aI79
aa(lp723
I-98
aI79
aa(lp724
I-97
aI79
aa(lp725
I-96
aI79
aa(lp726
I-95
aI79
aa(lp727
I-94
aI79
aa(lp728
I-93
aI79
aa(lp729
I-115
aI79
aa(lp730
I-117
aI79
aa(lp731
I-120
aI79
aa(lp732
I-126
aI79
aa(lp733
I-127
aI79
aa(lp734
I-128
aI79
aa(lp735
I-129
aI79
aa(lp736
I-130
aI79
aa(lp737
I-131
aI79
aa(lp738
I-132
aI79
aa(lp739
I-60
aI71
aa(lp740
I-60
aI72
aa(lp741
I-60
aI73
aa(lp742
I-60
aI74
aa(lp743
I-60
aI75
aa(lp744
I-60
aI76
aa(lp745
I-60
aI77
aa(lp746
I-60
aI78
aa(lp747
I-59
aI70
aa(lp748
I-59
aI69
aa(lp749
I-59
aI68
aa(lp750
I-59
aI67
aa(lp751
I-59
aI66
aa(lp752
I-59
aI65
aa(lp753
I-59
aI64
aa(lp754
I-59
aI63
aa(lp755
I-58
aI62
aa(lp756
I-58
aI61
aa(lp757
I-58
aI60
aa(lp758
I-58
aI59
aa(lp759
I-58
aI58
aa(lp760
I-58
aI57
aa(lp761
I-58
aI56
aa(lp762
I-58
aI55
aa(lp763
I-33
aI55
aa(lp764
I-34
aI55
aa(lp765
I-35
aI55
aa(lp766
I-36
aI55
aa(lp767
I-37
aI55
aa(lp768
I-38
aI55
aa(lp769
I-39
aI55
aa(lp770
I-40
aI55
aa(lp771
I-41
aI55
aa(lp772
I-42
aI55
aa(lp773
I-43
aI55
aa(lp774
I-44
aI55
aa(lp775
I-45
aI55
aa(lp776
I-46
aI55
aa(lp777
I-47
aI55
aa(lp778
I-48
aI55
aa(lp779
I-49
aI55
aa(lp780
I-50
aI55
aa(lp781
I-51
aI55
aa(lp782
I-52
aI55
aa(lp783
I-53
aI55
aa(lp784
I-54
aI55
aa(lp785
I-55
aI55
aa(lp786
I-56
aI55
aa(lp787
I-57
aI55
aa(lp788
I-57
aI54
aa(lp789
I-57
aI53
aa(lp790
I-57
aI52
aa(lp791
I-57
aI48
aa(lp792
I-57
aI47
aa(lp793
I-56
aI46
aa(lp794
I-56
aI45
aa(lp795
I-56
aI44
aa(lp796
I-56
aI43
aa(lp797
I-56
aI42
aa(lp798
I-56
aI41
aa(lp799
I-56
aI40
aa(lp800
I-56
aI39
aa(lp801
I-55
aI38
aa(lp802
I-55
aI37
aa(lp803
I-55
aI36
aa(lp804
I-55
aI35
aa(lp805
I-55
aI34
aa(lp806
I-55
aI33
aa(lp807
I-55
aI32
aa(lp808
I-55
aI31
aa(lp809
I-54
aI30
aa(lp810
I-54
aI29
aa(lp811
I-57
aI49
aa(lp812
I-54
aI28
aa(lp813
I-77
aI28
aa(lp814
I-76
aI28
aa(lp815
I-61
aI28
aa(lp816
I-60
aI28
aa(lp817
I-59
aI28
aa(lp818
I-58
aI28
aa(lp819
I-57
aI28
aa(lp820
I-56
aI28
aa(lp821
I-55
aI28
aa(lp822
I-62
aI28
aa(lp823
I-63
aI28
aa(lp824
I-64
aI28
aa(lp825
I-65
aI28
aa(lp826
I-66
aI28
aa(lp827
I-67
aI28
aa(lp828
I-68
aI28
aa(lp829
I-69
aI28
aa(lp830
I-70
aI28
aa(lp831
I-71
aI28
aa(lp832
I-72
aI28
aa(lp833
I-73
aI28
aa(lp834
I-74
aI28
aa(lp835
I-75
aI28
aa(lp836
I-77
aI29
aa(lp837
I-77
aI30
aa(lp838
I-77
aI31
aa(lp839
I-77
aI32
aa(lp840
I-77
aI33
aa(lp841
I-77
aI34
aa(lp842
I-77
aI35
aa(lp843
I-77
aI36
aa(lp844
I-77
aI37
aa(lp845
I-77
aI38
aa(lp846
I-77
aI39
aa(lp847
I-77
aI40
aa(lp848
I-77
aI41
aa(lp849
I-77
aI42
aa(lp850
I-77
aI43
aa(lp851
I-77
aI44
aa(lp852
I-77
aI45
aa(lp853
I-77
aI46
aa(lp854
I-77
aI47
aa(lp855
I-77
aI48
aa(lp856
I-77
aI49
aa(lp857
I-77
aI50
aa(lp858
I-77
aI51
aa(lp859
I-77
aI52
aa(lp860
I-77
aI53
aa(lp861
I-77
aI54
aa(lp862
I-77
aI55
aa(lp863
I-77
aI56
aa(lp864
I-77
aI57
aa(lp865
I-77
aI58
aa(lp866
I-77
aI59
aa(lp867
I-77
aI60
aa(lp868
I-77
aI61
aa(lp869
I-77
aI62
aa(lp870
I-77
aI63
aa(lp871
I-77
aI64
aa(lp872
I-77
aI65
aa(lp873
I-77
aI66
aa(lp874
I-77
aI67
aa(lp875
I-77
aI68
aa(lp876
I-77
aI69
aa(lp877
I-77
aI70
aa(lp878
I-77
aI71
aa(lp879
I-77
aI72
aa(lp880
I-77
aI73
aa(lp881
I-77
aI74
aa(lp882
I-77
aI75
aa(lp883
I-77
aI77
aa(lp884
I-77
aI78
aa(lp885
I-77
aI76
aa(lp886
I-79
aI28
aa(lp887
I-78
aI28
aa(lp888
I-80
aI28
aa(lp889
I-109
aI28
aa(lp890
I-108
aI28
aa(lp891
I-107
aI28
aa(lp892
I-104
aI28
aa(lp893
I-103
aI28
aa(lp894
I-102
aI28
aa(lp895
I-101
aI28
aa(lp896
I-100
aI28
aa(lp897
I-99
aI28
aa(lp898
I-98
aI28
aa(lp899
I-97
aI28
aa(lp900
I-96
aI28
aa(lp901
I-95
aI28
aa(lp902
I-94
aI28
aa(lp903
I-93
aI28
aa(lp904
I-92
aI28
aa(lp905
I-91
aI28
aa(lp906
I-90
aI28
aa(lp907
I-89
aI28
aa(lp908
I-88
aI28
aa(lp909
I-87
aI28
aa(lp910
I-86
aI28
aa(lp911
I-85
aI28
aa(lp912
I-84
aI28
aa(lp913
I-83
aI28
aa(lp914
I-82
aI28
aa(lp915
I-81
aI28
aa(lp916
I-110
aI28
aa(lp917
I-111
aI28
aa(lp918
I-112
aI28
aa(lp919
I-113
aI28
aa(lp920
I-114
aI28
aa(lp921
I-115
aI28
aa(lp922
I-116
aI28
aa(lp923
I-117
aI28
aa(lp924
I-118
aI28
aa(lp925
I-119
aI28
aa(lp926
I-120
aI28
aa(lp927
I-121
aI28
aa(lp928
I-122
aI28
aa(lp929
I-123
aI28
aa(lp930
I-124
aI28
aa(lp931
I-125
aI28
aa(lp932
I-126
aI28
aa(lp933
I-127
aI28
aa(lp934
I-128
aI28
aa(lp935
I-129
aI28
aa(lp936
I-130
aI28
aa(lp937
I-131
aI28
aa(lp938
I-132
aI28
aa(lp939
I-133
aI28
aa(lp940
I-134
aI28
aa(lp941
I-135
aI28
aa(lp942
I-136
aI28
aa(lp943
I-137
aI28
aa(lp944
I-138
aI28
aa(lp945
I-140
aI28
aa(lp946
I-139
aI28
aa(lp947
I-143
aI28
aa(lp948
I-144
aI28
aa(lp949
I-145
aI28
aa(lp950
I-146
aI28
aa(lp951
I-137
aI29
aa(lp952
I-137
aI30
aa(lp953
I-137
aI32
aa(lp954
I-137
aI33
aa(lp955
I-137
aI34
aa(lp956
I-137
aI35
aa(lp957
I-137
aI36
aa(lp958
I-137
aI37
aa(lp959
I-137
aI38
aa(lp960
I-137
aI39
aa(lp961
I-137
aI40
aa(lp962
I-137
aI41
aa(lp963
I-137
aI42
aa(lp964
I-137
aI43
aa(lp965
I-137
aI44
aa(lp966
I-137
aI45
aa(lp967
I-137
aI60
aa(lp968
I-137
aI61
aa(lp969
I-137
aI62
aa(lp970
I-137
aI63
aa(lp971
I-137
aI64
aa(lp972
I-137
aI65
aa(lp973
I-137
aI66
aa(lp974
I-137
aI67
aa(lp975
I-137
aI68
aa(lp976
I-137
aI69
aa(lp977
I-137
aI70
aa(lp978
I-137
aI71
aa(lp979
I-137
aI72
aa(lp980
I-137
aI59
aa(lp981
I-137
aI58
aa(lp982
I-137
aI57
aa(lp983
I-137
aI56
aa(lp984
I-137
aI55
aa(lp985
I-137
aI54
aa(lp986
I-137
aI53
aa(lp987
I-137
aI52
aa(lp988
I-137
aI51
aa(lp989
I-137
aI50
aa(lp990
I-137
aI49
aa(lp991
I-137
aI48
aa(lp992
I-137
aI47
aa(lp993
I-137
aI46
aa(lp994
I-137
aI31
aa(lp995
I-136
aI72
aa(lp996
I-135
aI72
aa(lp997
I-134
aI72
aa(lp998
I-133
aI72
aa(lp999
I-132
aI72
aa(lp1000
I-131
aI72
aa(lp1001
I-130
aI72
aa(lp1002
I-129
aI72
aa(lp1003
I-128
aI72
aa(lp1004
I-127
aI72
aa(lp1005
I-126
aI72
aa(lp1006
I-125
aI72
aa(lp1007
I-124
aI72
aa(lp1008
I-123
aI72
aa(lp1009
I-122
aI72
aa(lp1010
I-121
aI72
aa(lp1011
I-120
aI72
aa(lp1012
I-119
aI72
aa(lp1013
I-118
aI72
aa(lp1014
I-117
aI72
aa(lp1015
I-116
aI72
aa(lp1016
I-115
aI72
aa(lp1017
I-114
aI72
aa(lp1018
I-113
aI72
aa(lp1019
I-112
aI72
aa(lp1020
I-111
aI72
aa(lp1021
I-110
aI72
aa(lp1022
I-109
aI72
aa(lp1023
I-108
aI72
aa(lp1024
I-107
aI72
aa(lp1025
I-106
aI72
aa(lp1026
I-105
aI72
aa(lp1027
I-104
aI72
aa(lp1028
I-103
aI72
aa(lp1029
I-102
aI72
aa(lp1030
I-101
aI72
aa(lp1031
I-100
aI72
aa(lp1032
I-99
aI72
aa(lp1033
I-98
aI72
aa(lp1034
I-97
aI72
aa(lp1035
I-96
aI72
aa(lp1036
I-95
aI72
aa(lp1037
I-94
aI72
aa(lp1038
I-93
aI72
aa(lp1039
I-92
aI72
aa(lp1040
I-91
aI72
aa(lp1041
I-81
aI72
aa(lp1042
I-82
aI72
aa(lp1043
I-83
aI72
aa(lp1044
I-84
aI72
aa(lp1045
I-85
aI72
aa(lp1046
I-86
aI72
aa(lp1047
I-90
aI72
aa(lp1048
I-89
aI72
aa(lp1049
I-88
aI72
aa(lp1050
I-87
aI72
aa(lp1051
I-80
aI72
aa(lp1052
I-79
aI72
aa(lp1053
I-78
aI72
aa(lp1054
I-137
aI-29
aa(lp1055
I-137
aI-30
aa(lp1056
I-137
aI-31
aa(lp1057
I-137
aI-32
aa(lp1058
I-137
aI-33
aa(lp1059
I-137
aI-34
aa(lp1060
I-137
aI-35
aa(lp1061
I-137
aI-36
aa(lp1062
I-137
aI-37
aa(lp1063
I-137
aI-38
aa(lp1064
I-137
aI-39
aa(lp1065
I-137
aI-40
aa(lp1066
I-137
aI-41
aa(lp1067
I-137
aI-42
aa(lp1068
I-137
aI-43
aa(lp1069
I-142
aI-37
aa(lp1070
I-44
aI-57
aa(lp1071
I-44
aI-56
aa(lp1072
I-44
aI-55
aa(lp1073
I-44
aI-54
aa(lp1074
I-44
aI-53
aa(lp1075
I-44
aI-52
aa(lp1076
I-44
aI-51
aa(lp1077
I-44
aI-50
aa(lp1078
I-45
aI-49
aa(lp1079
I-45
aI-48
aa(lp1080
I-45
aI-47
aa(lp1081
I-45
aI-46
aa(lp1082
I-45
aI-45
aa(lp1083
I-45
aI-44
aa(lp1084
I-45
aI-43
aa(lp1085
I-45
aI-42
aa(lp1086
I-46
aI-41
aa(lp1087
I-46
aI-40
aa(lp1088
I-46
aI-39
aa(lp1089
I-46
aI-38
aa(lp1090
I-46
aI-37
aa(lp1091
I-46
aI-36
aa(lp1092
I-46
aI-35
aa(lp1093
I-46
aI-34
aa(lp1094
I-47
aI-32
aa(lp1095
I-47
aI-31
aa(lp1096
I-47
aI-33
aa(lp1097
I-47
aI-30
aa(lp1098
I-47
aI-29
aa(lp1099
I-47
aI-28
aa(lp1100
I-47
aI-27
aa(lp1101
I-47
aI-26
aa(lp1102
I-48
aI-25
aa(lp1103
I-48
aI-24
aa(lp1104
I-48
aI-23
aa(lp1105
I-48
aI-22
aa(lp1106
I-48
aI-21
aa(lp1107
I-48
aI-20
aa(lp1108
I-48
aI-19
aa(lp1109
I-48
aI-18
aa(lp1110
I-49
aI-13
aa(lp1111
I-49
aI-16
aa(lp1112
I-49
aI-17
aa(lp1113
I-49
aI-15
aa(lp1114
I-49
aI-14
aa(lp1115
I-43
aI-69
aa(lp1116
I-44
aI-69
aa(lp1117
I-45
aI-69
aa(lp1118
I-46
aI-69
aa(lp1119
I-47
aI-69
aa(lp1120
I-48
aI-69
aa(lp1121
I-49
aI-69
aa(lp1122
I-49
aI-68
aa(lp1123
I-49
aI-65
aa(lp1124
I-49
aI-64
aa(lp1125
I-49
aI-63
aa(lp1126
I-49
aI-62
aa(lp1127
I-49
aI-61
aa(lp1128
I-49
aI-60
aa(lp1129
I-49
aI-59
aa(lp1130
I-49
aI-58
aa(lp1131
I-48
aI-58
aa(lp1132
I-47
aI-58
aa(lp1133
I-46
aI-58
aa(lp1134
I-45
aI-58
aa(lp1135
I-44
aI-58
aa(lp1136
I-48
aI-64
aa(lp1137
I-45
aI-64
aa(lp1138
I-44
aI-64
aa(lp1139
I-76
aI-44
aa(lp1140
I-75
aI-44
aa(lp1141
I-74
aI-44
aa(lp1142
I-73
aI-44
aa(lp1143
I-70
aI-44
aa(lp1144
I-69
aI-44
aa(lp1145
I-68
aI-44
aa(lp1146
I-67
aI-44
aa(lp1147
I-66
aI-44
aa(lp1148
I-65
aI-44
aa(lp1149
I-64
aI-44
aa(lp1150
I-63
aI-44
aa(lp1151
I-62
aI-44
aa(lp1152
I-61
aI-44
aa(lp1153
I-60
aI-44
aa(lp1154
I-59
aI-44
aa(lp1155
I-58
aI-44
aa(lp1156
I-57
aI-44
aa(lp1157
I-56
aI-44
aa(lp1158
I-55
aI-44
aa(lp1159
I-54
aI-44
aa(lp1160
I-53
aI-44
aa(lp1161
I-52
aI-44
aa(lp1162
I-51
aI-44
aa(lp1163
I-50
aI-44
aa(lp1164
I-49
aI-44
aa(lp1165
I-48
aI-44
aa(lp1166
I-47
aI-44
aa(lp1167
I-46
aI-44
aa(lp1168
I-77
aI-43
aa(lp1169
I-77
aI-42
aa(lp1170
I-77
aI-29
aa(lp1171
I-77
aI-30
aa(lp1172
I-77
aI-31
aa(lp1173
I-77
aI-32
aa(lp1174
I-77
aI-33
aa(lp1175
I-77
aI-34
aa(lp1176
I-77
aI-35
aa(lp1177
I-77
aI-36
aa(lp1178
I-77
aI-37
aa(lp1179
I-77
aI-38
aa(lp1180
I-77
aI-39
aa(lp1181
I-77
aI-40
aa(lp1182
I-77
aI-41
aa(lp1183
I-67
aI-38
aa(lp1184
I-67
aI-39
aa(lp1185
I-67
aI-40
aa(lp1186
I-67
aI-41
aa(lp1187
I-67
aI-42
aa(lp1188
I-67
aI-43
aa(lp1189
I-67
aI-37
aa(lp1190
I-67
aI-36
aa(lp1191
I-67
aI-35
aa(lp1192
I-67
aI-34
aa(lp1193
I-67
aI-33
aa(lp1194
I-67
aI-32
aa(lp1195
I-67
aI-31
aa(lp1196
I-67
aI-30
aa(lp1197
I-67
aI-29
aa(lp1198
I-72
aI-36
aa(lp1199
I-76
aI42
aa(lp1200
I-75
aI42
aa(lp1201
I-74
aI42
aa(lp1202
I-73
aI42
aa(lp1203
I-72
aI42
aa(lp1204
I-71
aI42
aa(lp1205
I-70
aI42
aa(lp1206
I-69
aI42
aa(lp1207
I-68
aI42
aa(lp1208
I-67
aI42
aa(lp1209
I-66
aI42
aa(lp1210
I-65
aI42
aa(lp1211
I-64
aI42
aa(lp1212
I-63
aI42
aa(lp1213
I-62
aI42
aa(lp1214
I-61
aI42
aa(lp1215
I-60
aI42
aa(lp1216
I-59
aI42
aa(lp1217
I-58
aI42
aa(lp1218
I-57
aI42
aa(lp1219
I-69
aI41
aa(lp1220
I-69
aI40
aa(lp1221
I-69
aI39
aa(lp1222
I-69
aI34
aa(lp1223
I-69
aI33
aa(lp1224
I-69
aI32
aa(lp1225
I-69
aI31
aa(lp1226
I-69
aI30
aa(lp1227
I-69
aI29
aa(lp1228
I-69
aI37
aa(lp1229
I-69
aI36
aa(lp1230
I-69
aI35
aa(lp1231
I-69
aI38
aa(lp1232
I-33
aI136
aa(lp1233
I-33
aI135
aa(lp1234
I-33
aI90
aa(lp1235
I-33
aI91
aa(lp1236
I-33
aI92
aa(lp1237
I-33
aI93
aa(lp1238
I-33
aI94
aa(lp1239
I-33
aI95
aa(lp1240
I-33
aI96
aa(lp1241
I-33
aI97
aa(lp1242
I-33
aI98
aa(lp1243
I-33
aI101
aa(lp1244
I-33
aI100
aa(lp1245
I-33
aI99
aa(lp1246
I-33
aI102
aa(lp1247
I-33
aI103
aa(lp1248
I-33
aI104
aa(lp1249
I-33
aI105
aa(lp1250
I-33
aI106
aa(lp1251
I-33
aI107
aa(lp1252
I-33
aI108
aa(lp1253
I-33
aI109
aa(lp1254
I-33
aI110
aa(lp1255
I-33
aI111
aa(lp1256
I-33
aI112
aa(lp1257
I-33
aI113
aa(lp1258
I-33
aI114
aa(lp1259
I-33
aI115
aa(lp1260
I-33
aI116
aa(lp1261
I-33
aI117
aa(lp1262
I-33
aI118
aa(lp1263
I-33
aI124
aa(lp1264
I-33
aI125
aa(lp1265
I-33
aI129
aa(lp1266
I-33
aI130
aa(lp1267
I-33
aI131
aa(lp1268
I-33
aI132
aa(lp1269
I-33
aI133
aa(lp1270
I-33
aI134
aa(lp1271
I-33
aI128
aa(lp1272
I-33
aI127
aa(lp1273
I-33
aI126
aa(lp1274
I-33
aI119
aa(lp1275
I-33
aI120
aa(lp1276
I-33
aI121
aa(lp1277
I-33
aI122
aa(lp1278
I-33
aI123
aa(lp1279
I-33
aI56
aa(lp1280
I-33
aI57
aa(lp1281
I-33
aI58
aa(lp1282
I-33
aI59
aa(lp1283
I-33
aI60
aa(lp1284
I-33
aI61
aa(lp1285
I-33
aI62
aa(lp1286
I-33
aI63
aa(lp1287
I-33
aI64
aa(lp1288
I-33
aI65
aa(lp1289
I-33
aI66
aa(lp1290
I-33
aI67
aa(lp1291
I-33
aI68
aa(lp1292
I-33
aI69
aa(lp1293
I-33
aI71
aa(lp1294
I-33
aI72
aa(lp1295
I-33
aI73
aa(lp1296
I-33
aI70
aa(lp1297
I-33
aI74
aa(lp1298
I-33
aI75
aa(lp1299
I-33
aI76
aa(lp1300
I-33
aI77
aa(lp1301
I-33
aI78
aa(lp1302
I-33
aI79
aa(lp1303
I-33
aI80
aa(lp1304
I-33
aI81
aa(lp1305
I-33
aI82
aa(lp1306
I-33
aI83
aa(lp1307
I-33
aI84
aa(lp1308
I-33
aI85
aa(lp1309
I-33
aI86
aa(lp1310
I-33
aI87
aa(lp1311
I-33
aI88
aa(lp1312
I-33
aI89
aa(lp1313
I52
aI136
aa(lp1314
I51
aI136
aa(lp1315
I50
aI136
aa(lp1316
I49
aI136
aa(lp1317
I48
aI136
aa(lp1318
I47
aI136
aa(lp1319
I46
aI136
aa(lp1320
I45
aI136
aa(lp1321
I44
aI136
aa(lp1322
I43
aI136
aa(lp1323
I42
aI136
aa(lp1324
I41
aI136
aa(lp1325
I40
aI136
aa(lp1326
I39
aI136
aa(lp1327
I38
aI136
aa(lp1328
I37
aI136
aa(lp1329
I36
aI136
aa(lp1330
I35
aI136
aa(lp1331
I34
aI136
aa(lp1332
I33
aI136
aa(lp1333
I32
aI136
aa(lp1334
I31
aI136
aa(lp1335
I30
aI136
aa(lp1336
I29
aI136
aa(lp1337
I28
aI136
aa(lp1338
I27
aI136
aa(lp1339
I26
aI136
aa(lp1340
I25
aI136
aa(lp1341
I24
aI136
aa(lp1342
I23
aI136
aa(lp1343
I22
aI136
aa(lp1344
I21
aI136
aa(lp1345
I20
aI136
aa(lp1346
I19
aI136
aa(lp1347
I18
aI136
aa(lp1348
I17
aI136
aa(lp1349
I16
aI136
aa(lp1350
I15
aI136
aa(lp1351
I14
aI136
aa(lp1352
I13
aI136
aa(lp1353
I12
aI136
aa(lp1354
I11
aI136
aa(lp1355
I10
aI136
aa(lp1356
I9
aI136
aa(lp1357
I8
aI136
aa(lp1358
I7
aI136
aa(lp1359
I6
aI136
aa(lp1360
I5
aI136
aa(lp1361
I4
aI136
aa(lp1362
I3
aI136
aa(lp1363
I2
aI136
aa(lp1364
I1
aI136
aa(lp1365
I0
aI136
aa(lp1366
I-1
aI136
aa(lp1367
I-2
aI136
aa(lp1368
I-3
aI136
aa(lp1369
I-4
aI136
aa(lp1370
I-5
aI136
aa(lp1371
I-6
aI136
aa(lp1372
I-7
aI136
aa(lp1373
I-8
aI136
aa(lp1374
I-9
aI136
aa(lp1375
I-10
aI136
aa(lp1376
I-11
aI136
aa(lp1377
I-12
aI136
aa(lp1378
I-13
aI136
aa(lp1379
I-14
aI136
aa(lp1380
I-15
aI136
aa(lp1381
I-16
aI136
aa(lp1382
I-17
aI136
aa(lp1383
I-18
aI136
aa(lp1384
I-19
aI136
aa(lp1385
I-20
aI136
aa(lp1386
I-21
aI136
aa(lp1387
I-31
aI136
aa(lp1388
I-30
aI136
aa(lp1389
I-29
aI136
aa(lp1390
I-28
aI136
aa(lp1391
I-27
aI136
aa(lp1392
I-26
aI136
aa(lp1393
I-25
aI136
aa(lp1394
I-24
aI136
aa(lp1395
I-23
aI136
aa(lp1396
I-22
aI136
aa(lp1397
I-32
aI136
aa(lp1398
I-32
aI55
aa(lp1399
I-31
aI55
aa(lp1400
I-30
aI55
aa(lp1401
I-29
aI55
aa(lp1402
I-28
aI55
aa(lp1403
I-27
aI55
aa(lp1404
I-32
aI135
aa(lp1405
I-31
aI134
aa(lp1406
I-30
aI133
aa(lp1407
I-29
aI132
aa(lp1408
I-28
aI131
aa(lp1409
I-27
aI130
aa(lp1410
I-26
aI129
aa(lp1411
I-25
aI128
aa(lp1412
I-24
aI127
aa(lp1413
I-23
aI126
aa(lp1414
I-22
aI125
aa(lp1415
I-21
aI124
aa(lp1416
I-20
aI123
aa(lp1417
I-19
aI122
aa(lp1418
I-18
aI121
aa(lp1419
I-17
aI120
aa(lp1420
I-16
aI119
aa(lp1421
I-15
aI118
aa(lp1422
I-14
aI117
aa(lp1423
I-13
aI116
aa(lp1424
I-12
aI115
aa(lp1425
I-10
aI113
aa(lp1426
I-9
aI112
aa(lp1427
I-8
aI111
aa(lp1428
I-7
aI110
aa(lp1429
I-6
aI109
aa(lp1430
I-5
aI108
aa(lp1431
I-4
aI107
aa(lp1432
I-3
aI106
aa(lp1433
I-2
aI105
aa(lp1434
I-1
aI104
aa(lp1435
I0
aI103
aa(lp1436
I1
aI102
aa(lp1437
I2
aI101
aa(lp1438
I3
aI100
aa(lp1439
I4
aI99
aa(lp1440
I5
aI98
aa(lp1441
I-11
aI114
aa(lp1442
I7
aI96
aa(lp1443
I6
aI97
aa(lp1444
I8
aI95
aa(lp1445
I9
aI94
aa(lp1446
I10
aI93
aa(lp1447
I11
aI92
aa(lp1448
I12
aI91
aa(lp1449
I13
aI90
aa(lp1450
I14
aI89
aa(lp1451
I15
aI88
aa(lp1452
I16
aI87
aa(lp1453
I17
aI86
aa(lp1454
I18
aI85
aa(lp1455
I19
aI84
aa(lp1456
I20
aI83
aa(lp1457
I21
aI82
aa(lp1458
I22
aI81
aa(lp1459
I23
aI80
aa(lp1460
I24
aI79
aa(lp1461
I25
aI78
aa(lp1462
I26
aI77
aa(lp1463
I27
aI76
aa(lp1464
I28
aI75
aa(lp1465
I29
aI74
aa(lp1466
I30
aI73
aa(lp1467
I31
aI72
aa(lp1468
I32
aI71
aa(lp1469
I33
aI70
aa(lp1470
I34
aI69
aa(lp1471
I35
aI68
aa(lp1472
I36
aI67
aa(lp1473
I37
aI66
aa(lp1474
I38
aI65
aa(lp1475
I39
aI64
aa(lp1476
I40
aI63
aa(lp1477
I41
aI62
aa(lp1478
I42
aI61
aa(lp1479
I43
aI60
aa(lp1480
I44
aI59
aa(lp1481
I45
aI58
aa(lp1482
I46
aI57
aa(lp1483
I47
aI56
aa(lp1484
I48
aI55
aa(lp1485
I49
aI54
aa(lp1486
I50
aI53
aa(lp1487
I52
aI51
aa(lp1488
I51
aI52
aa(lp1489
I9
aI66
aa(lp1490
I11
aI67
aa(lp1491
I12
aI67
aa(lp1492
I13
aI68
aa(lp1493
I14
aI68
aa(lp1494
I23
aI75
aa(lp1495
I24
aI76
aa(lp1496
I25
aI77
aa(lp1497
I26
aI78
aa(lp1498
I27
aI79
aa(lp1499
I28
aI80
aa(lp1500
I29
aI81
aa(lp1501
I30
aI82
aa(lp1502
I31
aI83
aa(lp1503
I32
aI84
aa(lp1504
I33
aI85
aa(lp1505
I33
aI86
aa(lp1506
I34
aI87
aa(lp1507
I34
aI88
aa(lp1508
I35
aI89
aa(lp1509
I35
aI90
aa(lp1510
I36
aI91
aa(lp1511
I36
aI92
aa(lp1512
I37
aI94
aa(lp1513
I52
aI134
aa(lp1514
I52
aI135
aa(lp1515
I37
aI93
aa(lp1516
I38
aI95
aa(lp1517
I38
aI96
aa(lp1518
I39
aI97
aa(lp1519
I39
aI98
aa(lp1520
I40
aI99
aa(lp1521
I40
aI100
aa(lp1522
I41
aI101
aa(lp1523
I41
aI102
aa(lp1524
I42
aI103
aa(lp1525
I43
aI105
aa(lp1526
I43
aI106
aa(lp1527
I44
aI107
aa(lp1528
I44
aI108
aa(lp1529
I45
aI109
aa(lp1530
I45
aI110
aa(lp1531
I46
aI111
aa(lp1532
I46
aI112
aa(lp1533
I46
aI113
aa(lp1534
I47
aI114
aa(lp1535
I47
aI115
aa(lp1536
I47
aI116
aa(lp1537
I48
aI117
aa(lp1538
I48
aI118
aa(lp1539
I48
aI119
aa(lp1540
I49
aI120
aa(lp1541
I49
aI121
aa(lp1542
I49
aI122
aa(lp1543
I50
aI123
aa(lp1544
I50
aI124
aa(lp1545
I50
aI125
aa(lp1546
I51
aI126
aa(lp1547
I51
aI127
aa(lp1548
I51
aI128
aa(lp1549
I51
aI129
aa(lp1550
I51
aI130
aa(lp1551
I52
aI131
aa(lp1552
I52
aI132
aa(lp1553
I52
aI133
aa(lp1554
I10
aI66
aa(lp1555
I8
aI65
aa(lp1556
I7
aI65
aa(lp1557
I6
aI64
aa(lp1558
I5
aI64
aa(lp1559
I4
aI63
aa(lp1560
I3
aI63
aa(lp1561
I2
aI62
aa(lp1562
I1
aI62
aa(lp1563
I0
aI61
aa(lp1564
I-1
aI61
aa(lp1565
I-2
aI60
aa(lp1566
I-3
aI60
aa(lp1567
I-4
aI59
aa(lp1568
I-5
aI59
aa(lp1569
I-6
aI58
aa(lp1570
I-7
aI58
aa(lp1571
I-8
aI57
aa(lp1572
I-9
aI57
aa(lp1573
I-10
aI57
aa(lp1574
I-11
aI57
aa(lp1575
I-12
aI57
aa(lp1576
I-13
aI57
aa(lp1577
I-13
aI56
aa(lp1578
I-14
aI56
aa(lp1579
I-15
aI56
aa(lp1580
I-16
aI56
aa(lp1581
I-17
aI56
aa(lp1582
I-18
aI55
aa(lp1583
I-19
aI55
aa(lp1584
I-20
aI55
aa(lp1585
I-21
aI55
aa(lp1586
I-22
aI55
aa(lp1587
I-23
aI55
aa(lp1588
I-24
aI55
aa(lp1589
I-25
aI55
aa(lp1590
I-26
aI55
aa(lp1591
I22
aI76
aa(lp1592
I21
aI77
aa(lp1593
I20
aI78
aa(lp1594
I19
aI79
aa(lp1595
I18
aI78
aa(lp1596
I17
aI77
aa(lp1597
I16
aI77
aa(lp1598
I15
aI76
aa(lp1599
I14
aI75
aa(lp1600
I13
aI74
aa(lp1601
I12
aI73
aa(lp1602
I42
aI104
aa(lp1603
I-43
aI-44
aa(lp1604
I-42
aI-44
aa(lp1605
I-44
aI-44
aa(lp1606
I-41
aI-44
aa(lp1607
I-40
aI-44
aa(lp1608
I-39
aI-44
aa(lp1609
I-38
aI-44
aa(lp1610
I-37
aI-44
aa(lp1611
I-36
aI-44
aa(lp1612
I-35
aI-44
aa(lp1613
I-34
aI-44
aa(lp1614
I-33
aI-44
aa(lp1615
I-32
aI-44
aa(lp1616
I-31
aI-44
aa(lp1617
I-30
aI-44
aa(lp1618
I-29
aI-44
aa(lp1619
I-28
aI-44
aa(lp1620
I-27
aI-44
aa(lp1621
I-26
aI-44
aa(lp1622
I-25
aI-44
aa(lp1623
I-24
aI-44
aa(lp1624
I-23
aI-44
aa(lp1625
I-22
aI-44
aa(lp1626
I-21
aI-44
aa(lp1627
I-20
aI-44
aa(lp1628
I-19
aI-44
aa(lp1629
I-18
aI-44
aa(lp1630
I-17
aI-44
aa(lp1631
I-16
aI-44
aa(lp1632
I-15
aI-44
aa(lp1633
I-14
aI-44
aa(lp1634
I-13
aI-44
aa(lp1635
I-12
aI-44
aa(lp1636
I-11
aI-44
aa(lp1637
I-10
aI-44
aa(lp1638
I-9
aI-44
aa(lp1639
I-8
aI-44
aa(lp1640
I-7
aI-44
aa(lp1641
I-6
aI-44
aa(lp1642
I-5
aI-44
aa(lp1643
I-4
aI-44
aa(lp1644
I-3
aI-44
aa(lp1645
I-2
aI-44
aa(lp1646
I-1
aI-44
aa(lp1647
I0
aI-44
aa(lp1648
I1
aI-44
aa(lp1649
I2
aI-44
aa(lp1650
I3
aI-44
aa(lp1651
I4
aI-44
aa(lp1652
I5
aI-44
aa(lp1653
I6
aI-44
aa(lp1654
I7
aI-44
aa(lp1655
I8
aI-44
aa(lp1656
I9
aI-44
aa(lp1657
I10
aI-44
aa(lp1658
I11
aI-44
aa(lp1659
I12
aI-44
aa(lp1660
I13
aI-44
aa(lp1661
I14
aI-44
aa(lp1662
I15
aI-44
aa(lp1663
I16
aI-44
aa(lp1664
I17
aI-44
aa(lp1665
I18
aI-44
aa(lp1666
I19
aI-44
aa(lp1667
I20
aI-44
aa(lp1668
I21
aI-44
aa(lp1669
I22
aI-44
aa(lp1670
I23
aI-44
aa(lp1671
I27
aI-58
aa(lp1672
I27
aI-57
aa(lp1673
I27
aI-56
aa(lp1674
I27
aI-55
aa(lp1675
I27
aI-54
aa(lp1676
I27
aI-53
aa(lp1677
I27
aI-52
aa(lp1678
I27
aI-51
aa(lp1679
I27
aI-50
aa(lp1680
I27
aI-49
aa(lp1681
I27
aI-48
aa(lp1682
I27
aI-47
aa(lp1683
I27
aI-46
aa(lp1684
I27
aI-45
aa(lp1685
I27
aI-44
aa(lp1686
I26
aI-44
aa(lp1687
I25
aI-44
aa(lp1688
I24
aI-44
aa.